; Function Attrs: mustprogress nounwind uwtable
define dso_local noundef nonnull align 8 dereferenceable(24) ptr @_ZN7doctest6StringaSEOS0_(ptr noundef nonnull returned align 8 dereferenceable(24) %0, ptr noundef nonnull align 8 dereferenceable(24) %1) local_unnamed_addr #7 align 2 {
  %.not = icmp eq ptr %0, %1
  br i1 %.not, label %13, label %3

3:                                                ; preds = %2
  %4 = getelementptr inbounds nuw i8, ptr %0, i64 23
  %5 = load i8, ptr %4, align 1, !tbaa !38
  %6 = icmp sgt i8 %5, -1
  br i1 %6, label %11, label %7

7:                                                ; preds = %3
  %8 = load ptr, ptr %0, align 8, !tbaa !38
  %9 = icmp eq ptr %8, null
  br i1 %9, label %11, label %10

10:                                               ; preds = %7
  tail call void @_ZdaPv(ptr noundef nonnull %8) #48
  br label %11

11:                                               ; preds = %7, %10, %3
  tail call void @llvm.memcpy.p0.p0.i64(ptr noundef nonnull align 8 dereferenceable(24) %0, ptr noundef nonnull align 8 dereferenceable(24) %1, i64 24, i1 false)
  store i8 0, ptr %1, align 8, !tbaa !38
  %12 = getelementptr inbounds nuw i8, ptr %1, i64 23
  store i8 23, ptr %12, align 1, !tbaa !38
  br label %13

13:                                               ; preds = %11, %2
  ret ptr %0
}